	.file	"test1.c"
	.intel_syntax noprefix
	.text
	.section	.rodata
.LC0:
	.string	"test:%d\n"
	.text
	.globl	main
	.type	main, @function
main:
.LFB0:
	.cfi_startproc
	lea	ecx, 4[esp]
	.cfi_def_cfa 1, 0
	and	esp, -16
	push	DWORD PTR -4[ecx]
	push	ebp
	.cfi_escape 0x10,0x5,0x2,0x75,0
	mov	ebp, esp
	push	ebx
	push	ecx
	.cfi_escape 0xf,0x3,0x75,0x78,0x6
	.cfi_escape 0x10,0x3,0x2,0x75,0x7c
	sub	esp, 16
	call	__x86.get_pc_thunk.bx
	add	ebx, OFFSET FLAT:_GLOBAL_OFFSET_TABLE_
	mov	DWORD PTR -20[ebp], 20
	mov	DWORD PTR -16[ebp], 15
	sub	esp, 8
	push	DWORD PTR -20[ebp]
	lea	eax, .LC0@GOTOFF[ebx]
	push	eax
	call	printf@PLT
	add	esp, 16
	cmp	DWORD PTR -20[ebp], 49
	jg	.L2
	mov	DWORD PTR -12[ebp], 50
	sub	esp, 8
	push	DWORD PTR -12[ebp]
	lea	eax, .LC0@GOTOFF[ebx]
	push	eax
	call	printf@PLT
	add	esp, 16
.L2:
	mov	eax, 0
	lea	esp, -8[ebp]
	pop	ecx
	.cfi_restore 1
	.cfi_def_cfa 1, 0
	pop	ebx
	.cfi_restore 3
	pop	ebp
	.cfi_restore 5
	lea	esp, -4[ecx]
	.cfi_def_cfa 4, 4
	ret
	.cfi_endproc
.LFE0:
	.size	main, .-main
	.section	.text.__x86.get_pc_thunk.bx,"axG",@progbits,__x86.get_pc_thunk.bx,comdat
	.globl	__x86.get_pc_thunk.bx
	.hidden	__x86.get_pc_thunk.bx
	.type	__x86.get_pc_thunk.bx, @function
__x86.get_pc_thunk.bx:
.LFB1:
	.cfi_startproc
	mov	ebx, DWORD PTR [esp]
	ret
	.cfi_endproc
.LFE1:
	.ident	"GCC: (Ubuntu 7.5.0-3ubuntu1~18.04) 7.5.0"
	.section	.note.GNU-stack,"",@progbits
