	.file	"testc.c"
	.text
	.globl	n
	.bss
	.align 4
	.type	n, @object
	.size	n, 4
n:
	.zero	4
	.text
	.globl	factorial
	.type	factorial, @function
factorial:
.LFB0:
	.cfi_startproc
	pushq	%rbp
	.cfi_def_cfa_offset 16
	.cfi_offset 6, -16
	movq	%rsp, %rbp
	.cfi_def_cfa_register 6
	movl	%edi, -20(%rbp)
	movl	$2, -8(%rbp)
	movl	$1, -4(%rbp)
	jmp	.L2
.L3:
	movl	-4(%rbp), %eax
	imull	-8(%rbp), %eax
	movl	%eax, -4(%rbp)
	addl	$1, -8(%rbp)
.L2:
	movl	-8(%rbp), %eax
	cmpl	-20(%rbp), %eax
	jle	.L3
	movl	-4(%rbp), %eax
	popq	%rbp
	.cfi_def_cfa 7, 8
	ret
	.cfi_endproc
.LFE0:
	.size	factorial, .-factorial
	.section	.rodata
.LC0:
	.string	"%d"
.LC1:
	.string	"factorial is: %d\n"
	.text
	.globl	main
	.type	main, @function
main:
.LFB1:
	.cfi_startproc
	pushq	%rbp
	.cfi_def_cfa_offset 16
	.cfi_offset 6, -16
	movq	%rsp, %rbp
	.cfi_def_cfa_register 6
	leaq	n(%rip), %rsi
	leaq	.LC0(%rip), %rdi
	movl	$0, %eax
	call	__isoc99_scanf@PLT
	movl	n(%rip), %eax
	movl	%eax, %edi
	call	factorial
	movl	%eax, %esi
	leaq	.LC1(%rip), %rdi
	movl	$0, %eax
	call	printf@PLT
	movl	$0, %eax
	popq	%rbp
	.cfi_def_cfa 7, 8
	ret
	.cfi_endproc
.LFE1:
	.size	main, .-main
	.ident	"GCC: (Ubuntu 7.5.0-3ubuntu1~18.04) 7.5.0"
	.section	.note.GNU-stack,"",@progbits
